; Function Attrs: nounwind uwtable
define hidden noundef ptr @Wayland_primary_selection_source_create(ptr noundef readonly captures(address_is_null) %0) local_unnamed_addr #0 {
  %.not = icmp eq ptr %0, null
  br i1 %.not, label %5, label %2

2:                                                ; preds = %1
  %3 = getelementptr inbounds nuw i8, ptr %0, i64 1656
  %4 = load ptr, ptr %3, align 8
  %.not18 = icmp eq ptr %4, null
  br i1 %.not18, label %5, label %7

5:                                                ; preds = %2, %1
  %6 = tail call zeroext i1 (ptr, ...) @SDL_SetError_REAL(ptr noundef nonnull @.str.1) #12
  br label %26

7:                                                ; preds = %2
  %8 = getelementptr inbounds nuw i8, ptr %4, i64 104
  %9 = load ptr, ptr %8, align 8
  %.not19 = icmp eq ptr %9, null
  br i1 %.not19, label %.thread, label %10

10:                                               ; preds = %7
  %11 = load ptr, ptr @WAYLAND_wl_proxy_marshal_flags, align 8
  %12 = load ptr, ptr @WAYLAND_wl_proxy_get_version, align 8
  %13 = tail call i32 %12(ptr noundef nonnull %9) #12
  %14 = tail call ptr (ptr, i32, ptr, i32, i32, ...) %11(ptr noundef nonnull %9, i32 noundef 0, ptr noundef nonnull @zwp_primary_selection_source_v1_interface, i32 noundef %13, i32 noundef 0, ptr noundef null) #12
  %.not20 = icmp eq ptr %14, null
  br i1 %.not20, label %.thread, label %16

.thread:                                          ; preds = %7, %10
  %15 = tail call zeroext i1 (ptr, ...) @SDL_SetError_REAL(ptr noundef nonnull @.str.3) #12
  br label %26

16:                                               ; preds = %10
  %17 = tail call noalias dereferenceable_or_null(48) ptr @SDL_calloc_REAL(i64 noundef 1, i64 noundef 48) #14
  %.not21 = icmp eq ptr %17, null
  br i1 %.not21, label %18, label %23

18:                                               ; preds = %16
  %19 = load ptr, ptr @WAYLAND_wl_proxy_marshal_flags, align 8
  %20 = load ptr, ptr @WAYLAND_wl_proxy_get_version, align 8
  %21 = tail call i32 %20(ptr noundef nonnull %14) #12
  %22 = tail call ptr (ptr, i32, ptr, i32, i32, ...) %19(ptr noundef nonnull %14, i32 noundef 1, ptr noundef null, i32 noundef %21, i32 noundef 1) #12
  br label %26

23:                                               ; preds = %16
  store ptr %14, ptr %17, align 8
  %24 = load ptr, ptr @WAYLAND_wl_proxy_add_listener, align 8
  %25 = tail call i32 %24(ptr noundef nonnull %14, ptr noundef nonnull @primary_selection_source_listener, ptr noundef nonnull %17) #12
  br label %26

26:                                               ; preds = %.thread, %23, %18, %5
  %.013 = phi ptr [ %17, %23 ], [ null, %18 ], [ null, %.thread ], [ null, %5 ]
  ret ptr %.013
}